target datalayout = "e-m:e-p270:32:32-p271:32:32-p272:64:64-i64:64-i128:128-f80:128-n8:16:32:64-S128"
target triple = "x86_64-pc-linux-gnu"

; Function Attrs: nounwind uwtable
define internal i32 @Cba_CharIsDigit(i8 noundef signext %0) #0 {
  %2 = alloca i8, align 1
  store i8 %0, ptr %2, align 1
  %3 = load i8, ptr %2, align 1
  %4 = sext i8 %3 to i32
  %5 = icmp sge i32 %4, 48
  br i1 %5, label %6, label %10

6:                                                ; preds = %1
  %7 = load i8, ptr %2, align 1
  %8 = sext i8 %7 to i32
  %9 = icmp sle i32 %8, 57
  br label %10

10:                                               ; preds = %6, %1
  %11 = phi i1 [ false, %1 ], [ %9, %6 ]
  %12 = zext i1 %11 to i32
  ret i32 %12
}

; Function Attrs: nounwind uwtable
define i32 @Cba_StrCmpInt(ptr noundef %0, ptr noundef %1, i32 noundef %2) #0 {
  %4 = alloca i32, align 4
  %5 = alloca ptr, align 8
  %6 = alloca ptr, align 8
  %7 = alloca i32, align 4
  %8 = alloca i32, align 4
  %9 = alloca i32, align 4
  store ptr %0, ptr %5, align 8
  store ptr %1, ptr %6, align 8
  store i32 %2, ptr %7, align 4
  %10 = load ptr, ptr %5, align 8
  %11 = load i32, ptr %7, align 4
  %12 = sext i32 %11 to i64
  %13 = getelementptr inbounds i8, ptr %10, i64 %12
  %14 = load i8, ptr %13, align 1
  %15 = call i32 @Cba_CharIsDigit(i8 noundef signext %14)
  %16 = icmp ne i32 %15, 0
  br i1 %16, label %25, label %17

17:                                               ; preds = %3
  %18 = load ptr, ptr %6, align 8
  %19 = load i32, ptr %7, align 4
  %20 = sext i32 %19 to i64
  %21 = getelementptr inbounds i8, ptr %18, i64 %20
  %22 = load i8, ptr %21, align 1
  %23 = call i32 @Cba_CharIsDigit(i8 noundef signext %22)
  %24 = icmp ne i32 %23, 0
  br i1 %24, label %25, label %96

25:                                               ; preds = %17, %3
  %26 = load i32, ptr %7, align 4
  %27 = icmp sgt i32 %26, 0
  br i1 %27, label %28, label %37

28:                                               ; preds = %25
  %29 = load ptr, ptr %5, align 8
  %30 = load i32, ptr %7, align 4
  %31 = sub nsw i32 %30, 1
  %32 = sext i32 %31 to i64
  %33 = getelementptr inbounds i8, ptr %29, i64 %32
  %34 = load i8, ptr %33, align 1
  %35 = call i32 @Cba_CharIsDigit(i8 noundef signext %34)
  %36 = icmp ne i32 %35, 0
  br i1 %36, label %53, label %37

37:                                               ; preds = %28, %25
  %38 = load ptr, ptr %5, align 8
  %39 = load i32, ptr %7, align 4
  %40 = sext i32 %39 to i64
  %41 = getelementptr inbounds i8, ptr %38, i64 %40
  %42 = load i8, ptr %41, align 1
  %43 = call i32 @Cba_CharIsDigit(i8 noundef signext %42)
  %44 = icmp ne i32 %43, 0
  br i1 %44, label %45, label %95

45:                                               ; preds = %37
  %46 = load ptr, ptr %6, align 8
  %47 = load i32, ptr %7, align 4
  %48 = sext i32 %47 to i64
  %49 = getelementptr inbounds i8, ptr %46, i64 %48
  %50 = load i8, ptr %49, align 1
  %51 = call i32 @Cba_CharIsDigit(i8 noundef signext %50)
  %52 = icmp ne i32 %51, 0
  br i1 %52, label %53, label %95

53:                                               ; preds = %45, %28
  %54 = load i32, ptr %7, align 4
  %55 = add nsw i32 %54, -1
  store i32 %55, ptr %7, align 4
  br label %56

56:                                               ; preds = %69, %53
  %57 = load i32, ptr %7, align 4
  %58 = icmp sge i32 %57, 0
  br i1 %58, label %59, label %72

59:                                               ; preds = %56
  %60 = load ptr, ptr %5, align 8
  %61 = load i32, ptr %7, align 4
  %62 = sext i32 %61 to i64
  %63 = getelementptr inbounds i8, ptr %60, i64 %62
  %64 = load i8, ptr %63, align 1
  %65 = call i32 @Cba_CharIsDigit(i8 noundef signext %64)
  %66 = icmp ne i32 %65, 0
  br i1 %66, label %68, label %67

67:                                               ; preds = %59
  br label %72

68:                                               ; preds = %59
  br label %69

69:                                               ; preds = %68
  %70 = load i32, ptr %7, align 4
  %71 = add nsw i32 %70, -1
  store i32 %71, ptr %7, align 4
  br label %56, !llvm.loop !24

72:                                               ; preds = %67, %56
  %73 = load i32, ptr %7, align 4
  %74 = add nsw i32 %73, 1
  store i32 %74, ptr %7, align 4
  %75 = load ptr, ptr %5, align 8
  %76 = load i32, ptr %7, align 4
  %77 = sext i32 %76 to i64
  %78 = getelementptr inbounds i8, ptr %75, i64 %77
  %79 = call i32 @atoi(ptr noundef %78) #14
  store i32 %79, ptr %8, align 4
  %80 = load ptr, ptr %6, align 8
  %81 = load i32, ptr %7, align 4
  %82 = sext i32 %81 to i64
  %83 = getelementptr inbounds i8, ptr %80, i64 %82
  %84 = call i32 @atoi(ptr noundef %83) #14
  store i32 %84, ptr %9, align 4
  %85 = load i32, ptr %8, align 4
  %86 = load i32, ptr %9, align 4
  %87 = icmp slt i32 %85, %86
  br i1 %87, label %88, label %89

88:                                               ; preds = %72
  store i32 -1, ptr %4, align 4
  br label %127

89:                                               ; preds = %72
  %90 = load i32, ptr %8, align 4
  %91 = load i32, ptr %9, align 4
  %92 = icmp sgt i32 %90, %91
  br i1 %92, label %93, label %94

93:                                               ; preds = %89
  store i32 1, ptr %4, align 4
  br label %127

94:                                               ; preds = %89
  store i32 0, ptr %4, align 4
  br label %127

95:                                               ; preds = %45, %37
  br label %96

96:                                               ; preds = %95, %17
  %97 = load ptr, ptr %5, align 8
  %98 = load i32, ptr %7, align 4
  %99 = sext i32 %98 to i64
  %100 = getelementptr inbounds i8, ptr %97, i64 %99
  %101 = load i8, ptr %100, align 1
  %102 = sext i8 %101 to i32
  %103 = load ptr, ptr %6, align 8
  %104 = load i32, ptr %7, align 4
  %105 = sext i32 %104 to i64
  %106 = getelementptr inbounds i8, ptr %103, i64 %105
  %107 = load i8, ptr %106, align 1
  %108 = sext i8 %107 to i32
  %109 = icmp slt i32 %102, %108
  br i1 %109, label %110, label %111

110:                                              ; preds = %96
  store i32 -1, ptr %4, align 4
  br label %127

111:                                              ; preds = %96
  %112 = load ptr, ptr %5, align 8
  %113 = load i32, ptr %7, align 4
  %114 = sext i32 %113 to i64
  %115 = getelementptr inbounds i8, ptr %112, i64 %114
  %116 = load i8, ptr %115, align 1
  %117 = sext i8 %116 to i32
  %118 = load ptr, ptr %6, align 8
  %119 = load i32, ptr %7, align 4
  %120 = sext i32 %119 to i64
  %121 = getelementptr inbounds i8, ptr %118, i64 %120
  %122 = load i8, ptr %121, align 1
  %123 = sext i8 %122 to i32
  %124 = icmp sgt i32 %117, %123
  br i1 %124, label %125, label %126

125:                                              ; preds = %111
  store i32 1, ptr %4, align 4
  br label %127

126:                                              ; preds = %111
  store i32 0, ptr %4, align 4
  br label %127

127:                                              ; preds = %126, %125, %110, %94, %93, %88
  %128 = load i32, ptr %4, align 4
  ret i32 %128
}