; Function Attrs: nofree nounwind memory(read) uwtable
define range(i32 -1, 2) i32 @Cba_StrCmpInt(ptr noundef readonly captures(none) %0, ptr noundef readonly captures(none) %1, i32 noundef %2) local_unnamed_addr #8 {
  %4 = sext i32 %2 to i64
  %5 = getelementptr inbounds i8, ptr %0, i64 %4
  %6 = load i8, ptr %5, align 1
  %7 = add i8 %6, -58
  %8 = icmp ult i8 %7, -10
  br i1 %8, label %9, label %14

9:                                                ; preds = %3
  %10 = getelementptr inbounds i8, ptr %1, i64 %4
  %11 = load i8, ptr %10, align 1
  %12 = add i8 %11, -58
  %13 = icmp ult i8 %12, -10
  br i1 %13, label %._crit_edge, label %14

14:                                               ; preds = %9, %3
  %15 = icmp sgt i32 %2, 0
  br i1 %15, label %16, label %23

16:                                               ; preds = %14
  %17 = zext nneg i32 %2 to i64
  %18 = getelementptr i8, ptr %0, i64 %17
  %19 = getelementptr i8, ptr %18, i64 -1
  %20 = load i8, ptr %19, align 1
  %21 = add i8 %20, -58
  %22 = icmp ult i8 %21, -10
  br i1 %22, label %23, label %26

23:                                               ; preds = %16, %14
  %.phi.trans.insert = getelementptr inbounds i8, ptr %1, i64 %4
  %.pre = load i8, ptr %.phi.trans.insert, align 1
  %24 = add i8 %.pre, -58
  %25 = icmp ult i8 %24, -10
  %or.cond = select i1 %8, i1 true, i1 %25
  br i1 %or.cond, label %._crit_edge, label %._crit_edge47

._crit_edge47:                                    ; preds = %23
  %.pre48 = zext i32 %2 to i64
  br label %26

26:                                               ; preds = %._crit_edge47, %16
  %.pre-phi = phi i64 [ %.pre48, %._crit_edge47 ], [ %17, %16 ]
  %smin = tail call i32 @llvm.smin.i32(i32 %2, i32 0)
  br label %27

27:                                               ; preds = %30, %26
  %indvars.iv = phi i64 [ %31, %30 ], [ %.pre-phi, %26 ]
  %28 = trunc nuw i64 %indvars.iv to i32
  %29 = icmp sgt i32 %28, 0
  br i1 %29, label %30, label %36

30:                                               ; preds = %27
  %31 = add nsw i64 %indvars.iv, -1
  %32 = getelementptr inbounds nuw i8, ptr %0, i64 %31
  %33 = load i8, ptr %32, align 1
  %34 = add i8 %33, -58
  %35 = icmp ult i8 %34, -10
  br i1 %35, label %36, label %27, !llvm.loop !26

36:                                               ; preds = %30, %27
  %.033.in.lcssa = phi i32 [ %28, %30 ], [ %smin, %27 ]
  %37 = sext i32 %.033.in.lcssa to i64
  %38 = getelementptr inbounds i8, ptr %0, i64 %37
  %39 = tail call i32 @atoi(ptr noundef %38) #27
  %40 = getelementptr inbounds i8, ptr %1, i64 %37
  %41 = tail call i32 @atoi(ptr noundef %40) #27
  %42 = icmp slt i32 %39, %41
  br i1 %42, label %49, label %43

43:                                               ; preds = %36
  %44 = icmp sgt i32 %39, %41
  %. = zext i1 %44 to i32
  br label %49

._crit_edge:                                      ; preds = %23, %9
  %45 = phi i8 [ %11, %9 ], [ %.pre, %23 ]
  %46 = icmp slt i8 %6, %45
  br i1 %46, label %49, label %47

47:                                               ; preds = %._crit_edge
  %48 = icmp sgt i8 %6, %45
  %.44 = zext i1 %48 to i32
  br label %49

49:                                               ; preds = %47, %._crit_edge, %43, %36
  %.0 = phi i32 [ -1, %36 ], [ %., %43 ], [ -1, %._crit_edge ], [ %.44, %47 ]
  ret i32 %.0
}